target datalayout = "e-m:e-p270:32:32-p271:32:32-p272:64:64-i64:64-i128:128-f80:128-n8:16:32:64-S128"
target triple = "x86_64-pc-linux-gnu"

%struct.ident_t = type { i32, i32, i32, i32, ptr }
%"struct.faiss::IndexLattice" = type { %"struct.faiss::IndexFlatCodes", i32, i64, %"struct.faiss::ZnSphereCodecAlt", i32, i32, %"class.std::vector.0" }
%"struct.faiss::IndexFlatCodes" = type { %"struct.faiss::Index.base", i64, %"class.std::vector" }
%"struct.faiss::Index.base" = type <{ ptr, i32, [4 x i8], i64, i8, i8, [2 x i8], i32, float }>
%"class.std::vector" = type { %"struct.std::_Vector_base" }
%"struct.std::_Vector_base" = type { %"struct.std::_Vector_base<unsigned char, std::allocator<unsigned char>>::_Vector_impl" }
%"struct.std::_Vector_base<unsigned char, std::allocator<unsigned char>>::_Vector_impl" = type { %"struct.std::_Vector_base<unsigned char, std::allocator<unsigned char>>::_Vector_impl_data" }
%"struct.std::_Vector_base<unsigned char, std::allocator<unsigned char>>::_Vector_impl_data" = type { ptr, ptr, ptr }
%"struct.faiss::ZnSphereCodecAlt" = type { %"struct.faiss::ZnSphereCodec", i8, %"struct.faiss::ZnSphereCodecRec" }
%"struct.faiss::ZnSphereCodec" = type { %"struct.faiss::EnumeratedVectors.base", %"struct.faiss::ZnSphereSearch", %"class.std::vector.5", i64, i64 }
%"struct.faiss::EnumeratedVectors.base" = type <{ ptr, i64, i32 }>
%"struct.faiss::ZnSphereSearch" = type { i32, i32, i32, %"class.std::vector.0" }
%"class.std::vector.5" = type { %"struct.std::_Vector_base.6" }
%"struct.std::_Vector_base.6" = type { %"struct.std::_Vector_base<faiss::ZnSphereCodec::CodeSegment, std::allocator<faiss::ZnSphereCodec::CodeSegment>>::_Vector_impl" }
%"struct.std::_Vector_base<faiss::ZnSphereCodec::CodeSegment, std::allocator<faiss::ZnSphereCodec::CodeSegment>>::_Vector_impl" = type { %"struct.std::_Vector_base<faiss::ZnSphereCodec::CodeSegment, std::allocator<faiss::ZnSphereCodec::CodeSegment>>::_Vector_impl_data" }
%"struct.std::_Vector_base<faiss::ZnSphereCodec::CodeSegment, std::allocator<faiss::ZnSphereCodec::CodeSegment>>::_Vector_impl_data" = type { ptr, ptr, ptr }
%"struct.faiss::ZnSphereCodecRec" = type { %"struct.faiss::EnumeratedVectors.base", i32, i32, i32, %"class.std::vector.10", %"class.std::vector.10", i32, %"class.std::vector.15" }
%"class.std::vector.10" = type { %"struct.std::_Vector_base.11" }
%"struct.std::_Vector_base.11" = type { %"struct.std::_Vector_base<unsigned long, std::allocator<unsigned long>>::_Vector_impl" }
%"struct.std::_Vector_base<unsigned long, std::allocator<unsigned long>>::_Vector_impl" = type { %"struct.std::_Vector_base<unsigned long, std::allocator<unsigned long>>::_Vector_impl_data" }
%"struct.std::_Vector_base<unsigned long, std::allocator<unsigned long>>::_Vector_impl_data" = type { ptr, ptr, ptr }
%"class.std::vector.15" = type { %"struct.std::_Vector_base.16" }
%"struct.std::_Vector_base.16" = type { %"struct.std::_Vector_base<std::vector<float>, std::allocator<std::vector<float>>>::_Vector_impl" }
%"struct.std::_Vector_base<std::vector<float>, std::allocator<std::vector<float>>>::_Vector_impl" = type { %"struct.std::_Vector_base<std::vector<float>, std::allocator<std::vector<float>>>::_Vector_impl_data" }
%"struct.std::_Vector_base<std::vector<float>, std::allocator<std::vector<float>>>::_Vector_impl_data" = type { ptr, ptr, ptr }
%"class.std::vector.0" = type { %"struct.std::_Vector_base.1" }
%"struct.std::_Vector_base.1" = type { %"struct.std::_Vector_base<float, std::allocator<float>>::_Vector_impl" }
%"struct.std::_Vector_base<float, std::allocator<float>>::_Vector_impl" = type { %"struct.std::_Vector_base<float, std::allocator<float>>::_Vector_impl_data" }
%"struct.std::_Vector_base<float, std::allocator<float>>::_Vector_impl_data" = type { ptr, ptr, ptr }

@2 = private unnamed_addr constant %struct.ident_t { i32 0, i32 2, i32 0, i32 22, ptr @0 }, align 8

; Function Attrs: mustprogress nounwind uwtable
define linkonce_odr noundef ptr @_ZNKSt6vectorIfSaIfEE11_M_data_ptrIfEEPT_S4_(ptr noundef nonnull align 8 dereferenceable(24) %0, ptr noundef %1) #3 comdat align 2 {
  %3 = alloca ptr, align 8
  %4 = alloca ptr, align 8
  store ptr %0, ptr %3, align 8, !tbaa !71
  store ptr %1, ptr %4, align 8, !tbaa !13
  %5 = load ptr, ptr %4, align 8, !tbaa !13
  ret ptr %5
}

; Function Attrs: mustprogress nounwind uwtable
define linkonce_odr noundef ptr @_ZNKSt6vectorIfSaIfEE4dataEv(ptr noundef nonnull align 8 dereferenceable(24) %0) #3 comdat align 2 {
  %2 = alloca ptr, align 8
  store ptr %0, ptr %2, align 8, !tbaa !71
  %3 = load ptr, ptr %2, align 8
  %4 = getelementptr inbounds nuw %"struct.std::_Vector_base.1", ptr %3, i32 0, i32 0
  %5 = getelementptr inbounds nuw %"struct.std::_Vector_base<float, std::allocator<float>>::_Vector_impl_data", ptr %4, i32 0, i32 0
  %6 = load ptr, ptr %5, align 8, !tbaa !79
  %7 = call noundef ptr @_ZNKSt6vectorIfSaIfEE11_M_data_ptrIfEEPT_S4_(ptr noundef nonnull align 8 dereferenceable(24) %3, ptr noundef %6) #15
  ret ptr %7
}

; Function Attrs: mustprogress nounwind uwtable
define void @_ZNK5faiss12IndexLattice9sa_decodeElPKhPf(ptr noundef nonnull align 8 dereferenceable(344) %0, i64 noundef %1, ptr noundef %2, ptr noundef %3) unnamed_addr #3 align 2 {
  %5 = alloca ptr, align 8
  %6 = alloca i64, align 8
  %7 = alloca ptr, align 8
  %8 = alloca ptr, align 8
  %9 = alloca ptr, align 8
  %10 = alloca ptr, align 8
  %11 = alloca float, align 4
  %12 = alloca float, align 4
  store ptr %0, ptr %5, align 8, !tbaa !4
  store i64 %1, ptr %6, align 8, !tbaa !11
  store ptr %2, ptr %7, align 8, !tbaa !65
  store ptr %3, ptr %8, align 8, !tbaa !13
  %13 = load ptr, ptr %5, align 8
  call void @llvm.lifetime.start.p0(i64 8, ptr %9) #15
  %14 = getelementptr inbounds nuw %"struct.faiss::IndexLattice", ptr %13, i32 0, i32 6
  %15 = call noundef ptr @_ZNKSt6vectorIfSaIfEE4dataEv(ptr noundef nonnull align 8 dereferenceable(24) %14) #15
  store ptr %15, ptr %9, align 8, !tbaa !13
  call void @llvm.lifetime.start.p0(i64 8, ptr %10) #15
  %16 = load ptr, ptr %9, align 8, !tbaa !13
  %17 = getelementptr inbounds nuw %"struct.faiss::IndexLattice", ptr %13, i32 0, i32 1
  %18 = load i32, ptr %17, align 8, !tbaa !15
  %19 = sext i32 %18 to i64
  %20 = getelementptr inbounds float, ptr %16, i64 %19
  store ptr %20, ptr %10, align 8, !tbaa !13
  call void @llvm.lifetime.start.p0(i64 4, ptr %11) #15
  %21 = getelementptr inbounds nuw %"struct.faiss::IndexLattice", ptr %13, i32 0, i32 4
  %22 = load i32, ptr %21, align 8, !tbaa !66
  %23 = zext i32 %22 to i64
  %24 = shl i64 1, %23
  %25 = sitofp i64 %24 to float
  store float %25, ptr %11, align 4, !tbaa !53
  call void @llvm.lifetime.start.p0(i64 4, ptr %12) #15
  %26 = getelementptr inbounds nuw %"struct.faiss::IndexLattice", ptr %13, i32 0, i32 3
  %27 = getelementptr inbounds i8, ptr %26, i64 24
  %28 = getelementptr inbounds nuw %"struct.faiss::ZnSphereSearch", ptr %27, i32 0, i32 1
  %29 = load i32, ptr %28, align 4, !tbaa !67
  %30 = sitofp i32 %29 to float
  %31 = call float @sqrtf(float noundef %30) #15, !tbaa !52
  store float %31, ptr %12, align 4, !tbaa !53
  call void (ptr, i32, ptr, ...) @__kmpc_fork_call(ptr @2, i32 8, ptr @_ZNK5faiss12IndexLattice9sa_decodeElPKhPf.omp_outlined, ptr %6, ptr %7, ptr %13, ptr %8, ptr %10, ptr %9, ptr %11, ptr %12)
  call void @llvm.lifetime.end.p0(i64 4, ptr %12) #15
  call void @llvm.lifetime.end.p0(i64 4, ptr %11) #15
  call void @llvm.lifetime.end.p0(i64 8, ptr %10) #15
  call void @llvm.lifetime.end.p0(i64 8, ptr %9) #15
  ret void
}