; Function Attrs: mustprogress nounwind uwtable
define void @_ZNK5faiss12IndexLattice9sa_decodeElPKhPf(ptr noundef nonnull align 8 dereferenceable(344) %0, i64 noundef %1, ptr noundef %2, ptr noundef %3) unnamed_addr #4 align 2 {
  %5 = alloca i64, align 8
  %6 = alloca ptr, align 8
  %7 = alloca ptr, align 8
  %8 = alloca ptr, align 8
  %9 = alloca ptr, align 8
  %10 = alloca float, align 4
  %11 = alloca float, align 4
  store i64 %1, ptr %5, align 8, !tbaa !65
  store ptr %2, ptr %6, align 8, !tbaa !67
  store ptr %3, ptr %7, align 8, !tbaa !66
  call void @llvm.lifetime.start.p0(i64 8, ptr nonnull %8) #17
  %12 = getelementptr inbounds nuw i8, ptr %0, i64 320
  %13 = load ptr, ptr %12, align 8, !tbaa !7
  store ptr %13, ptr %8, align 8, !tbaa !66
  call void @llvm.lifetime.start.p0(i64 8, ptr nonnull %9) #17
  %14 = getelementptr inbounds nuw i8, ptr %0, i64 72
  %15 = load i32, ptr %14, align 8, !tbaa !17
  %16 = sext i32 %15 to i64
  %17 = getelementptr inbounds float, ptr %13, i64 %16
  store ptr %17, ptr %9, align 8, !tbaa !66
  call void @llvm.lifetime.start.p0(i64 4, ptr nonnull %10) #17
  %18 = getelementptr inbounds nuw i8, ptr %0, i64 312
  %19 = load i32, ptr %18, align 8, !tbaa !68
  %20 = zext nneg i32 %19 to i64
  %21 = shl nuw i64 1, %20
  %22 = sitofp i64 %21 to float
  store float %22, ptr %10, align 4, !tbaa !53
  call void @llvm.lifetime.start.p0(i64 4, ptr nonnull %11) #17
  %23 = getelementptr inbounds nuw i8, ptr %0, i64 116
  %24 = load i32, ptr %23, align 4, !tbaa !69
  %25 = sitofp i32 %24 to float
  %26 = tail call float @sqrtf(float noundef %25) #17, !tbaa !62
  store float %26, ptr %11, align 4, !tbaa !53
  call void (ptr, i32, ptr, ...) @__kmpc_fork_call(ptr nonnull @2, i32 8, ptr nonnull @_ZNK5faiss12IndexLattice9sa_decodeElPKhPf.omp_outlined, ptr nonnull %5, ptr nonnull %6, ptr nonnull %0, ptr nonnull %7, ptr nonnull %9, ptr nonnull %8, ptr nonnull %10, ptr nonnull %11)
  call void @llvm.lifetime.end.p0(i64 4, ptr nonnull %11) #17
  call void @llvm.lifetime.end.p0(i64 4, ptr nonnull %10) #17
  call void @llvm.lifetime.end.p0(i64 8, ptr nonnull %9) #17
  call void @llvm.lifetime.end.p0(i64 8, ptr nonnull %8) #17
  ret void
}